; ModuleID = 'source-C-CXX/39/3115.c'
source_filename = "source-C-CXX/39/3115.c"
target datalayout = "e-m:e-p270:32:32-p271:32:32-p272:64:64-i64:64-f80:128-n8:16:32:64-S128"
target triple = "x86_64-pc-linux-gnu"

@.str = private unnamed_addr constant [3 x i8] c"%f\00", align 1
@.str.1 = private unnamed_addr constant [14 x i8] c"Invalid input\00", align 1
@.str.2 = private unnamed_addr constant [5 x i8] c"%.4f\00", align 1

; Function Attrs: nofree nounwind sspstrong uwtable
define dso_local i32 @main() local_unnamed_addr #0 {
  %1 = alloca float, align 4
  %2 = alloca float, align 4
  %3 = alloca float, align 4
  %4 = alloca float, align 4
  %5 = alloca float, align 4
  %6 = bitcast float* %1 to i8*
  call void @llvm.lifetime.start.p0i8(i64 4, i8* nonnull %6) #4
  %7 = bitcast float* %2 to i8*
  call void @llvm.lifetime.start.p0i8(i64 4, i8* nonnull %7) #4
  %8 = bitcast float* %3 to i8*
  call void @llvm.lifetime.start.p0i8(i64 4, i8* nonnull %8) #4
  %9 = bitcast float* %4 to i8*
  call void @llvm.lifetime.start.p0i8(i64 4, i8* nonnull %9) #4
  %10 = bitcast float* %5 to i8*
  call void @llvm.lifetime.start.p0i8(i64 4, i8* nonnull %10) #4
  %11 = call i32 (i8*, ...) @__isoc99_scanf(i8* getelementptr inbounds ([3 x i8], [3 x i8]* @.str, i64 0, i64 0), float* nonnull %1)
  %12 = call i32 (i8*, ...) @__isoc99_scanf(i8* getelementptr inbounds ([3 x i8], [3 x i8]* @.str, i64 0, i64 0), float* nonnull %2)
  %13 = call i32 (i8*, ...) @__isoc99_scanf(i8* getelementptr inbounds ([3 x i8], [3 x i8]* @.str, i64 0, i64 0), float* nonnull %3)
  %14 = call i32 (i8*, ...) @__isoc99_scanf(i8* getelementptr inbounds ([3 x i8], [3 x i8]* @.str, i64 0, i64 0), float* nonnull %4)
  %15 = call i32 (i8*, ...) @__isoc99_scanf(i8* getelementptr inbounds ([3 x i8], [3 x i8]* @.str, i64 0, i64 0), float* nonnull %5)
  %16 = load float, float* %1, align 4, !tbaa !5
  %17 = load float, float* %2, align 4, !tbaa !5
  %18 = fadd float %16, %17
  %19 = load float, float* %3, align 4, !tbaa !5
  %20 = fadd float %18, %19
  %21 = load float, float* %4, align 4, !tbaa !5
  %22 = fadd float %20, %21
  %23 = fmul float %22, 5.000000e-01
  %24 = load float, float* %5, align 4, !tbaa !5
  %25 = fdiv float %24, 1.800000e+02
  %26 = fpext float %25 to double
  %27 = fmul double %26, 0x400921FB4D12D84A
  %28 = fptrunc double %27 to float
  %29 = fsub float %23, %16
  %30 = fsub float %23, %17
  %31 = fmul float %29, %30
  %32 = fsub float %23, %19
  %33 = fmul float %32, %31
  %34 = fsub float %23, %21
  %35 = fmul float %34, %33
  %36 = fpext float %35 to double
  %37 = fmul float %16, %17
  %38 = fmul float %37, %19
  %39 = fmul float %38, %21
  %40 = fpext float %39 to double
  %41 = fpext float %28 to double
  %42 = fmul double %41, 5.000000e-01
  %43 = call double @cos(double %42) #4
  %44 = fmul double %43, %40
  %45 = call double @cos(double %42) #4
  %46 = fmul double %44, %45
  %47 = fsub double %36, %46
  %48 = fcmp olt double %47, 0.000000e+00
  br i1 %48, label %49, label %51

49:                                               ; preds = %0
  %50 = call i32 (i8*, ...) @printf(i8* nonnull dereferenceable(1) getelementptr inbounds ([14 x i8], [14 x i8]* @.str.1, i64 0, i64 0))
  br label %77

51:                                               ; preds = %0
  %52 = load float, float* %1, align 4, !tbaa !5
  %53 = fsub float %23, %52
  %54 = load float, float* %2, align 4, !tbaa !5
  %55 = fsub float %23, %54
  %56 = fmul float %53, %55
  %57 = load float, float* %3, align 4, !tbaa !5
  %58 = fsub float %23, %57
  %59 = fmul float %56, %58
  %60 = load float, float* %4, align 4, !tbaa !5
  %61 = fsub float %23, %60
  %62 = fmul float %59, %61
  %63 = fpext float %62 to double
  %64 = fmul float %52, %54
  %65 = fmul float %64, %57
  %66 = fmul float %65, %60
  %67 = fpext float %66 to double
  %68 = call double @cos(double %42) #4
  %69 = fmul double %68, %67
  %70 = call double @cos(double %42) #4
  %71 = fmul double %70, %69
  %72 = fsub double %63, %71
  %73 = call double @sqrt(double %72) #4
  %74 = fptrunc double %73 to float
  %75 = fpext float %74 to double
  %76 = call i32 (i8*, ...) @printf(i8* nonnull dereferenceable(1) getelementptr inbounds ([5 x i8], [5 x i8]* @.str.2, i64 0, i64 0), double %75)
  br label %77

77:                                               ; preds = %51, %49
  call void @llvm.lifetime.end.p0i8(i64 4, i8* nonnull %10) #4
  call void @llvm.lifetime.end.p0i8(i64 4, i8* nonnull %9) #4
  call void @llvm.lifetime.end.p0i8(i64 4, i8* nonnull %8) #4
  call void @llvm.lifetime.end.p0i8(i64 4, i8* nonnull %7) #4
  call void @llvm.lifetime.end.p0i8(i64 4, i8* nonnull %6) #4
  ret i32 0
}

; Function Attrs: argmemonly mustprogress nofree nosync nounwind willreturn
declare void @llvm.lifetime.start.p0i8(i64 immarg, i8* nocapture) #1

; Function Attrs: nofree nounwind
declare noundef i32 @__isoc99_scanf(i8* nocapture noundef readonly, ...) local_unnamed_addr #2

; Function Attrs: mustprogress nofree nounwind willreturn
declare double @cos(double) local_unnamed_addr #3

; Function Attrs: nofree nounwind
declare noundef i32 @printf(i8* nocapture noundef readonly, ...) local_unnamed_addr #2

; Function Attrs: mustprogress nofree nounwind willreturn
declare double @sqrt(double) local_unnamed_addr #3

; Function Attrs: argmemonly mustprogress nofree nosync nounwind willreturn
declare void @llvm.lifetime.end.p0i8(i64 immarg, i8* nocapture) #1


!llvm.module.flags = !{!0, !1, !2, !3}
!llvm.ident = !{!4}

!0 = !{i32 1, !"wchar_size", i32 4}
!1 = !{i32 7, !"PIC Level", i32 2}
!2 = !{i32 7, !"PIE Level", i32 2}
!3 = !{i32 7, !"uwtable", i32 1}
!4 = !{!"clang version 13.0.0"}
!5 = !{!6, !6, i64 0}
!6 = !{!"float", !7, i64 0}
!7 = !{!"omnipotent char", !8, i64 0}
!8 = !{!"Simple C/C++ TBAA"}
